; Function Attrs: nounwind uwtable
define dso_local void @RelationForgetRelation(i32 noundef %0) local_unnamed_addr #0 {
  %2 = alloca i32, align 4
  store i32 %0, ptr %2, align 4
  %3 = load ptr, ptr @RelationIdCache, align 8
  %4 = call ptr @hash_search(ptr noundef %3, ptr noundef nonnull %2, i32 noundef 0, ptr noundef null) #13
  %.not = icmp eq ptr %4, null
  br i1 %.not, label %.thread, label %5

5:                                                ; preds = %1
  %6 = getelementptr inbounds nuw i8, ptr %4, i64 8
  %7 = load ptr, ptr %6, align 8
  %.not10 = icmp eq ptr %7, null
  br i1 %.not10, label %.thread, label %8

8:                                                ; preds = %5
  %9 = getelementptr inbounds nuw i8, ptr %7, i64 24
  %10 = load i32, ptr %9, align 8
  %11 = icmp eq i32 %10, 0
  br i1 %11, label %16, label %12

12:                                               ; preds = %8
  %13 = call zeroext i1 @errstart_cold(i32 noundef 21, ptr noundef null) #14
  call void @llvm.assume(i1 %13)
  %14 = load i32, ptr %2, align 4
  %15 = call i32 (ptr, ...) @errmsg_internal(ptr noundef nonnull @.str.5, i32 noundef %14) #13
  call void @errfinish(ptr noundef nonnull @.str.1, i32 noundef 2859, ptr noundef nonnull @__func__.RelationForgetRelation) #13
  unreachable

16:                                               ; preds = %8
  %17 = getelementptr inbounds nuw i8, ptr %7, i64 40
  %18 = load i32, ptr %17, align 8
  %.not11 = icmp eq i32 %18, 0
  br i1 %.not11, label %19, label %22

19:                                               ; preds = %16
  %20 = getelementptr inbounds nuw i8, ptr %7, i64 48
  %21 = load i32, ptr %20, align 8
  %.not12 = icmp eq i32 %21, 0
  br i1 %.not12, label %33, label %22

22:                                               ; preds = %19, %16
  %23 = call i32 @GetCurrentSubTransactionId() #13
  %24 = getelementptr inbounds nuw i8, ptr %7, i64 52
  store i32 %23, ptr %24, align 4
  %25 = getelementptr inbounds nuw i8, ptr %7, i64 16
  %26 = load ptr, ptr %25, align 8
  %.not.i.i = icmp eq ptr %26, null
  br i1 %.not.i.i, label %RelationCloseSmgr.exit.i, label %27

27:                                               ; preds = %22
  call void @smgrunpin(ptr noundef nonnull %26) #13
  %28 = load ptr, ptr %25, align 8
  call void @smgrclose(ptr noundef %28) #13
  store ptr null, ptr %25, align 8
  br label %RelationCloseSmgr.exit.i

RelationCloseSmgr.exit.i:                         ; preds = %27, %22
  %29 = getelementptr inbounds nuw i8, ptr %7, i64 456
  %30 = load ptr, ptr %29, align 8
  %.not.i = icmp eq ptr %30, null
  br i1 %.not.i, label %RelationInvalidateRelation.exit, label %31

31:                                               ; preds = %RelationCloseSmgr.exit.i
  call void @pfree(ptr noundef nonnull %30) #13
  br label %RelationInvalidateRelation.exit

RelationInvalidateRelation.exit:                  ; preds = %RelationCloseSmgr.exit.i, %31
  store ptr null, ptr %29, align 8
  %32 = getelementptr inbounds nuw i8, ptr %7, i64 34
  store i8 0, ptr %32, align 2
  br label %.thread

33:                                               ; preds = %19
  call fastcc void @RelationClearRelation(ptr noundef nonnull %7)
  br label %.thread

.thread:                                          ; preds = %1, %RelationInvalidateRelation.exit, %33, %5
  ret void
}